; Function Attrs: mustprogress uwtable
define hidden void @_ZNK4cvc58internal7printer3ast10AstPrinter18toStreamCmdSetInfoERSoRKNSt7__cxx1112basic_stringIcSt11char_traitsIcESaIcEEESC_(ptr nonnull readnone align 8 captures(none) %0, ptr noundef nonnull align 8 dereferenceable(8) %1, ptr noundef nonnull readonly align 8 captures(none) dereferenceable(32) %2, ptr noundef nonnull readonly align 8 captures(none) dereferenceable(32) %3) unnamed_addr #3 align 2 {
  %5 = alloca i8, align 1
  %6 = tail call noundef nonnull align 8 dereferenceable(8) ptr @_ZSt16__ostream_insertIcSt11char_traitsIcEERSt13basic_ostreamIT_T0_ES6_PKS3_l(ptr noundef nonnull align 8 dereferenceable(8) %1, ptr noundef nonnull @.str.43, i64 noundef 8)
  %7 = load ptr, ptr %2, align 8, !tbaa !15
  %8 = getelementptr inbounds nuw i8, ptr %2, i64 8
  %9 = load i64, ptr %8, align 8, !tbaa !11
  %10 = tail call noundef nonnull align 8 dereferenceable(8) ptr @_ZSt16__ostream_insertIcSt11char_traitsIcEERSt13basic_ostreamIT_T0_ES6_PKS3_l(ptr noundef nonnull align 8 dereferenceable(8) %1, ptr noundef %7, i64 noundef %9)
  %11 = tail call noundef nonnull align 8 dereferenceable(8) ptr @_ZSt16__ostream_insertIcSt11char_traitsIcEERSt13basic_ostreamIT_T0_ES6_PKS3_l(ptr noundef nonnull align 8 dereferenceable(8) %10, ptr noundef nonnull @.str.19, i64 noundef 2)
  %12 = load ptr, ptr %3, align 8, !tbaa !15
  %13 = getelementptr inbounds nuw i8, ptr %3, i64 8
  %14 = load i64, ptr %13, align 8, !tbaa !11
  %15 = tail call noundef nonnull align 8 dereferenceable(8) ptr @_ZSt16__ostream_insertIcSt11char_traitsIcEERSt13basic_ostreamIT_T0_ES6_PKS3_l(ptr noundef nonnull align 8 dereferenceable(8) %10, ptr noundef %12, i64 noundef %14)
  call void @llvm.lifetime.start.p0(i64 1, ptr nonnull %5)
  store i8 41, ptr %5, align 1, !tbaa !14
  %16 = load ptr, ptr %15, align 8, !tbaa !3
  %17 = getelementptr i8, ptr %16, i64 -24
  %18 = load i64, ptr %17, align 8
  %19 = getelementptr inbounds i8, ptr %15, i64 %18
  %20 = getelementptr inbounds nuw i8, ptr %19, i64 16
  %21 = load i64, ptr %20, align 8, !tbaa !46
  %.not.i = icmp eq i64 %21, 0
  br i1 %.not.i, label %24, label %22

22:                                               ; preds = %4
  %23 = call noundef nonnull align 8 dereferenceable(8) ptr @_ZSt16__ostream_insertIcSt11char_traitsIcEERSt13basic_ostreamIT_T0_ES6_PKS3_l(ptr noundef nonnull align 8 dereferenceable(8) %15, ptr noundef nonnull %5, i64 noundef 1)
  br label %_ZStlsISt11char_traitsIcEERSt13basic_ostreamIcT_ES5_c.exit

24:                                               ; preds = %4
  %25 = tail call noundef nonnull align 8 dereferenceable(8) ptr @_ZNSo3putEc(ptr noundef nonnull align 8 dereferenceable(8) %15, i8 noundef signext 41)
  br label %_ZStlsISt11char_traitsIcEERSt13basic_ostreamIcT_ES5_c.exit

_ZStlsISt11char_traitsIcEERSt13basic_ostreamIcT_ES5_c.exit: ; preds = %22, %24
  %.0.i = phi ptr [ %23, %22 ], [ %15, %24 ]
  call void @llvm.lifetime.end.p0(i64 1, ptr nonnull %5)
  %26 = load ptr, ptr %.0.i, align 8, !tbaa !3
  %27 = getelementptr i8, ptr %26, i64 -24
  %28 = load i64, ptr %27, align 8
  %29 = getelementptr inbounds i8, ptr %.0.i, i64 %28
  %30 = getelementptr inbounds nuw i8, ptr %29, i64 240
  %31 = load ptr, ptr %30, align 8, !tbaa !69
  %.not.i.i.i = icmp eq ptr %31, null
  br i1 %.not.i.i.i, label %32, label %_ZSt13__check_facetISt5ctypeIcEERKT_PS3_.exit.i.i

32:                                               ; preds = %_ZStlsISt11char_traitsIcEERSt13basic_ostreamIcT_ES5_c.exit
  call void @_ZSt16__throw_bad_castv() #24
  unreachable

_ZSt13__check_facetISt5ctypeIcEERKT_PS3_.exit.i.i: ; preds = %_ZStlsISt11char_traitsIcEERSt13basic_ostreamIcT_ES5_c.exit
  %33 = getelementptr inbounds nuw i8, ptr %31, i64 56
  %34 = load i8, ptr %33, align 8, !tbaa !77
  %.not.i1.i.i = icmp eq i8 %34, 0
  br i1 %.not.i1.i.i, label %38, label %35

35:                                               ; preds = %_ZSt13__check_facetISt5ctypeIcEERKT_PS3_.exit.i.i
  %36 = getelementptr inbounds nuw i8, ptr %31, i64 67
  %37 = load i8, ptr %36, align 1, !tbaa !14
  br label %_ZSt4endlIcSt11char_traitsIcEERSt13basic_ostreamIT_T0_ES6_.exit

38:                                               ; preds = %_ZSt13__check_facetISt5ctypeIcEERKT_PS3_.exit.i.i
  call void @_ZNKSt5ctypeIcE13_M_widen_initEv(ptr noundef nonnull align 8 dereferenceable(570) %31)
  %39 = load ptr, ptr %31, align 8, !tbaa !3
  %40 = getelementptr inbounds nuw i8, ptr %39, i64 48
  %41 = load ptr, ptr %40, align 8
  %42 = call noundef signext i8 %41(ptr noundef nonnull align 8 dereferenceable(570) %31, i8 noundef signext 10)
  br label %_ZSt4endlIcSt11char_traitsIcEERSt13basic_ostreamIT_T0_ES6_.exit

_ZSt4endlIcSt11char_traitsIcEERSt13basic_ostreamIT_T0_ES6_.exit: ; preds = %35, %38
  %.0.i.i.i = phi i8 [ %37, %35 ], [ %42, %38 ]
  %43 = call noundef nonnull align 8 dereferenceable(8) ptr @_ZNSo3putEc(ptr noundef nonnull align 8 dereferenceable(8) %.0.i, i8 noundef signext %.0.i.i.i)
  %44 = call noundef nonnull align 8 dereferenceable(8) ptr @_ZNSo5flushEv(ptr noundef nonnull align 8 dereferenceable(8) %43)
  ret void
}